target datalayout = "e-m:e-p270:32:32-p271:32:32-p272:64:64-i64:64-i128:128-f80:128-n8:16:32:64-S128"
target triple = "x86_64-pc-linux-gnu"

@local_energy = internal global ptr null, align 8
@nb_pkg = internal global i32 0, align 4

; Function Attrs: nounwind uwtable
define dso_local i32 @fini() #0 {
  %1 = alloca i32, align 4
  %2 = alloca i32, align 4
  %3 = alloca i32, align 4
  call void @llvm.lifetime.start.p0(i64 4, ptr %2) #8
  %4 = call zeroext i1 @slurm_running_in_slurmd_stepd()
  br i1 %4, label %6, label %5

5:                                                ; preds = %0
  store i32 0, ptr %1, align 4
  store i32 1, ptr %3, align 4
  br label %32

6:                                                ; preds = %0
  store i32 0, ptr %2, align 4
  br label %7

7:                                                ; preds = %27, %6
  %8 = load i32, ptr %2, align 4
  %9 = load i32, ptr @nb_pkg, align 4
  %10 = icmp slt i32 %8, %9
  br i1 %10, label %11, label %30

11:                                               ; preds = %7
  %12 = load i32, ptr %2, align 4
  %13 = sext i32 %12 to i64
  %14 = getelementptr inbounds [256 x i32], ptr @pkg_fd, i64 0, i64 %13
  %15 = load i32, ptr %14, align 4
  %16 = icmp ne i32 %15, -1
  br i1 %16, label %17, label %26

17:                                               ; preds = %11
  %18 = load i32, ptr %2, align 4
  %19 = sext i32 %18 to i64
  %20 = getelementptr inbounds [256 x i32], ptr @pkg_fd, i64 0, i64 %19
  %21 = load i32, ptr %20, align 4
  %22 = call i32 @close(i32 noundef %21)
  %23 = load i32, ptr %2, align 4
  %24 = sext i32 %23 to i64
  %25 = getelementptr inbounds [256 x i32], ptr @pkg_fd, i64 0, i64 %24
  store i32 -1, ptr %25, align 4
  br label %26

26:                                               ; preds = %17, %11
  br label %27

27:                                               ; preds = %26
  %28 = load i32, ptr %2, align 4
  %29 = add nsw i32 %28, 1
  store i32 %29, ptr %2, align 4
  br label %7, !llvm.loop !14

30:                                               ; preds = %7
  %31 = load ptr, ptr @local_energy, align 8
  call void @acct_gather_energy_destroy(ptr noundef %31)
  store ptr null, ptr @local_energy, align 8
  store i32 0, ptr %1, align 4
  store i32 1, ptr %3, align 4
  br label %32

32:                                               ; preds = %30, %5
  call void @llvm.lifetime.end.p0(i64 4, ptr %2) #8
  %33 = load i32, ptr %1, align 4
  ret i32 %33
}