; Function Attrs: nounwind uwtable
define dso_local noundef i32 @fini() local_unnamed_addr #0 {
  %1 = tail call zeroext i1 @slurm_running_in_slurmd_stepd() #11
  br i1 %1, label %.preheader, label %14

.preheader:                                       ; preds = %0
  %2 = load i32, ptr @nb_pkg, align 4
  %3 = icmp sgt i32 %2, 0
  br i1 %3, label %.lr.ph, label %._crit_edge

.lr.ph:                                           ; preds = %.preheader, %9
  %4 = phi i32 [ %10, %9 ], [ %2, %.preheader ]
  %indvars.iv = phi i64 [ %indvars.iv.next, %9 ], [ 0, %.preheader ]
  %5 = getelementptr inbounds nuw [256 x i32], ptr @pkg_fd, i64 0, i64 %indvars.iv
  %6 = load i32, ptr %5, align 4
  %.not = icmp eq i32 %6, -1
  br i1 %.not, label %9, label %7

7:                                                ; preds = %.lr.ph
  %8 = tail call i32 @close(i32 noundef %6) #11
  store i32 -1, ptr %5, align 4
  %.pre = load i32, ptr @nb_pkg, align 4
  br label %9

9:                                                ; preds = %.lr.ph, %7
  %10 = phi i32 [ %4, %.lr.ph ], [ %.pre, %7 ]
  %indvars.iv.next = add nuw nsw i64 %indvars.iv, 1
  %11 = sext i32 %10 to i64
  %12 = icmp slt i64 %indvars.iv.next, %11
  br i1 %12, label %.lr.ph, label %._crit_edge, !llvm.loop !16

._crit_edge:                                      ; preds = %9, %.preheader
  %13 = load ptr, ptr @local_energy, align 8
  tail call void @acct_gather_energy_destroy(ptr noundef %13) #11
  store ptr null, ptr @local_energy, align 8
  br label %14

14:                                               ; preds = %0, %._crit_edge
  ret i32 0
}